target datalayout = "e-m:e-p270:32:32-p271:32:32-p272:64:64-i64:64-i128:128-f80:128-n8:16:32:64-S128"
target triple = "x86_64-pc-linux-gnu"

@.str.4 = private unnamed_addr constant [17 x i8] c" \09\0D\0A,.;:/\\(){}[]\00", align 1

; Function Attrs: nounwind uwtable
define dso_local zeroext i1 @ic_char_is_separator(ptr noundef %0, i64 noundef %1) #0 {
  %3 = alloca i1, align 1
  %4 = alloca ptr, align 8
  %5 = alloca i64, align 8
  %6 = alloca i8, align 1
  store ptr %0, ptr %4, align 8, !tbaa !11
  store i64 %1, ptr %5, align 8, !tbaa !9
  %7 = load ptr, ptr %4, align 8, !tbaa !11
  %8 = icmp eq ptr %7, null
  br i1 %8, label %12, label %9

9:                                                ; preds = %2
  %10 = load i64, ptr %5, align 8, !tbaa !9
  %11 = icmp ne i64 %10, 1
  br i1 %11, label %12, label %13

12:                                               ; preds = %9, %2
  store i1 false, ptr %3, align 1
  br label %20

13:                                               ; preds = %9
  call void @llvm.lifetime.start.p0(i64 1, ptr %6) #13
  %14 = load ptr, ptr %4, align 8, !tbaa !11
  %15 = load i8, ptr %14, align 1, !tbaa !13
  store i8 %15, ptr %6, align 1, !tbaa !13
  %16 = load i8, ptr %6, align 1, !tbaa !13
  %17 = sext i8 %16 to i32
  %18 = call ptr @strchr(ptr noundef @.str.4, i32 noundef %17) #14
  %19 = icmp ne ptr %18, null
  store i1 %19, ptr %3, align 1
  call void @llvm.lifetime.end.p0(i64 1, ptr %6) #13
  br label %20

20:                                               ; preds = %13, %12
  %21 = load i1, ptr %3, align 1
  ret i1 %21
}

; Function Attrs: nounwind uwtable
define dso_local zeroext i1 @ic_char_is_nonseparator(ptr noundef %0, i64 noundef %1) #0 {
  %3 = alloca ptr, align 8
  %4 = alloca i64, align 8
  store ptr %0, ptr %3, align 8, !tbaa !11
  store i64 %1, ptr %4, align 8, !tbaa !9
  %5 = load ptr, ptr %3, align 8, !tbaa !11
  %6 = load i64, ptr %4, align 8, !tbaa !9
  %7 = call zeroext i1 @ic_char_is_separator(ptr noundef %5, i64 noundef %6)
  %8 = xor i1 %7, true
  ret i1 %8
}