; Function Attrs: mustprogress nofree nounwind willreturn memory(argmem: read) uwtable
define dso_local zeroext i1 @ic_char_is_nonseparator(ptr noundef readonly %0, i64 noundef %1) #3 {
  %3 = icmp eq ptr %0, null
  %4 = icmp ne i64 %1, 1
  %or.cond.i = or i1 %3, %4
  br i1 %or.cond.i, label %ic_char_is_separator.exit, label %5

5:                                                ; preds = %2
  %6 = load i8, ptr %0, align 1, !tbaa !4
  %7 = sext i8 %6 to i32
  %memchr.i = tail call ptr @memchr(ptr noundef nonnull dereferenceable(1) @.str.4, i32 %7, i64 17)
  %8 = icmp eq ptr %memchr.i, null
  br label %ic_char_is_separator.exit

ic_char_is_separator.exit:                        ; preds = %2, %5
  %.0.i = phi i1 [ %8, %5 ], [ true, %2 ]
  ret i1 %.0.i
}